; Function Attrs: mustprogress uwtable
define hidden noundef nonnull align 8 dereferenceable(248) ptr @_ZN19OpenColorIO_v2_5dev22ExposureContrastOpDataaSERKS0_(ptr noundef nonnull returned align 8 dereferenceable(248) %0, ptr noundef nonnull align 8 dereferenceable(248) %1) local_unnamed_addr #0 align 2 {
  %3 = icmp eq ptr %0, %1
  br i1 %3, label %75, label %4

4:                                                ; preds = %2
  %5 = tail call noundef nonnull align 8 dereferenceable(168) ptr @_ZN19OpenColorIO_v2_5dev6OpDataaSERKS0_(ptr noundef nonnull align 8 dereferenceable(168) %0, ptr noundef nonnull align 8 dereferenceable(168) %1)
  %6 = getelementptr inbounds nuw i8, ptr %1, i64 168
  %7 = load i32, ptr %6, align 8, !tbaa !15
  %8 = getelementptr inbounds nuw i8, ptr %0, i64 168
  store i32 %7, ptr %8, align 8, !tbaa !15
  %9 = getelementptr inbounds nuw i8, ptr %0, i64 176
  %10 = load ptr, ptr %9, align 8, !tbaa !42
  %11 = getelementptr inbounds nuw i8, ptr %1, i64 176
  %12 = load ptr, ptr %11, align 8, !tbaa !42
  %13 = load ptr, ptr %12, align 8, !tbaa !13
  %14 = getelementptr inbounds nuw i8, ptr %13, i64 24
  %15 = load ptr, ptr %14, align 8
  %16 = tail call noundef double %15(ptr noundef nonnull align 8 dereferenceable(32) %12)
  %17 = load ptr, ptr %10, align 8, !tbaa !13
  %18 = getelementptr inbounds nuw i8, ptr %17, i64 32
  %19 = load ptr, ptr %18, align 8
  tail call void %19(ptr noundef nonnull align 8 dereferenceable(32) %10, double noundef %16)
  %20 = getelementptr inbounds nuw i8, ptr %0, i64 192
  %21 = load ptr, ptr %20, align 8, !tbaa !42
  %22 = getelementptr inbounds nuw i8, ptr %1, i64 192
  %23 = load ptr, ptr %22, align 8, !tbaa !42
  %24 = load ptr, ptr %23, align 8, !tbaa !13
  %25 = getelementptr inbounds nuw i8, ptr %24, i64 24
  %26 = load ptr, ptr %25, align 8
  %27 = tail call noundef double %26(ptr noundef nonnull align 8 dereferenceable(32) %23)
  %28 = load ptr, ptr %21, align 8, !tbaa !13
  %29 = getelementptr inbounds nuw i8, ptr %28, i64 32
  %30 = load ptr, ptr %29, align 8
  tail call void %30(ptr noundef nonnull align 8 dereferenceable(32) %21, double noundef %27)
  %31 = getelementptr inbounds nuw i8, ptr %0, i64 208
  %32 = load ptr, ptr %31, align 8, !tbaa !42
  %33 = getelementptr inbounds nuw i8, ptr %1, i64 208
  %34 = load ptr, ptr %33, align 8, !tbaa !42
  %35 = load ptr, ptr %34, align 8, !tbaa !13
  %36 = getelementptr inbounds nuw i8, ptr %35, i64 24
  %37 = load ptr, ptr %36, align 8
  %38 = tail call noundef double %37(ptr noundef nonnull align 8 dereferenceable(32) %34)
  %39 = load ptr, ptr %32, align 8, !tbaa !13
  %40 = getelementptr inbounds nuw i8, ptr %39, i64 32
  %41 = load ptr, ptr %40, align 8
  tail call void %41(ptr noundef nonnull align 8 dereferenceable(32) %32, double noundef %38)
  %42 = load ptr, ptr %11, align 8, !tbaa !42
  %43 = getelementptr inbounds nuw i8, ptr %42, i64 12
  %44 = load i8, ptr %43, align 4, !tbaa !76, !range !81, !noundef !82
  %45 = trunc nuw i8 %44 to i1
  br i1 %45, label %46, label %49

46:                                               ; preds = %4
  %47 = load ptr, ptr %9, align 8, !tbaa !42
  %48 = getelementptr inbounds nuw i8, ptr %47, i64 12
  store i8 1, ptr %48, align 4, !tbaa !76
  br label %49

49:                                               ; preds = %46, %4
  %50 = load ptr, ptr %22, align 8, !tbaa !42
  %51 = getelementptr inbounds nuw i8, ptr %50, i64 12
  %52 = load i8, ptr %51, align 4, !tbaa !76, !range !81, !noundef !82
  %53 = trunc nuw i8 %52 to i1
  br i1 %53, label %54, label %57

54:                                               ; preds = %49
  %55 = load ptr, ptr %20, align 8, !tbaa !42
  %56 = getelementptr inbounds nuw i8, ptr %55, i64 12
  store i8 1, ptr %56, align 4, !tbaa !76
  br label %57

57:                                               ; preds = %54, %49
  %58 = load ptr, ptr %33, align 8, !tbaa !42
  %59 = getelementptr inbounds nuw i8, ptr %58, i64 12
  %60 = load i8, ptr %59, align 4, !tbaa !76, !range !81, !noundef !82
  %61 = trunc nuw i8 %60 to i1
  br i1 %61, label %62, label %65

62:                                               ; preds = %57
  %63 = load ptr, ptr %31, align 8, !tbaa !42
  %64 = getelementptr inbounds nuw i8, ptr %63, i64 12
  store i8 1, ptr %64, align 4, !tbaa !76
  br label %65

65:                                               ; preds = %62, %57
  %66 = getelementptr inbounds nuw i8, ptr %1, i64 224
  %67 = load double, ptr %66, align 8, !tbaa !55
  %68 = getelementptr inbounds nuw i8, ptr %0, i64 224
  store double %67, ptr %68, align 8, !tbaa !55
  %69 = getelementptr inbounds nuw i8, ptr %1, i64 232
  %70 = load double, ptr %69, align 8, !tbaa !56
  %71 = getelementptr inbounds nuw i8, ptr %0, i64 232
  store double %70, ptr %71, align 8, !tbaa !56
  %72 = getelementptr inbounds nuw i8, ptr %1, i64 240
  %73 = load double, ptr %72, align 8, !tbaa !57
  %74 = getelementptr inbounds nuw i8, ptr %0, i64 240
  store double %73, ptr %74, align 8, !tbaa !57
  br label %75

75:                                               ; preds = %2, %65
  ret ptr %0
}